target datalayout = "e-m:e-p270:32:32-p271:32:32-p272:64:64-i64:64-i128:128-f80:128-n8:16:32:64-S128"
target triple = "x86_64-pc-linux-gnu"

%"class.i18n::phonenumbers::StringByteSink" = type { %"class.icu_70::ByteSink", ptr }
%"class.icu_70::ByteSink" = type { ptr }

$_ZN6icu_708ByteSinkC2Ev = comdat any

@_ZTVN4i18n12phonenumbers14StringByteSinkE = dso_local unnamed_addr constant { [7 x ptr] } { [7 x ptr] [ptr null, ptr @_ZTIN4i18n12phonenumbers14StringByteSinkE, ptr @_ZN4i18n12phonenumbers14StringByteSinkD1Ev, ptr @_ZN4i18n12phonenumbers14StringByteSinkD0Ev, ptr @_ZN4i18n12phonenumbers14StringByteSink6AppendEPKci, ptr @_ZN6icu_708ByteSink15GetAppendBufferEiiPciPi, ptr @_ZN6icu_708ByteSink5FlushEv] }, align 8
@_ZTVN10__cxxabiv120__si_class_type_infoE = external global [0 x ptr]
@_ZTSN4i18n12phonenumbers14StringByteSinkE = dso_local constant [38 x i8] c"N4i18n12phonenumbers14StringByteSinkE\00", align 1
@_ZTIN6icu_708ByteSinkE = external constant ptr
@_ZTIN4i18n12phonenumbers14StringByteSinkE = dso_local constant { ptr, ptr, ptr } { ptr getelementptr inbounds (ptr, ptr @_ZTVN10__cxxabiv120__si_class_type_infoE, i64 2), ptr @_ZTSN4i18n12phonenumbers14StringByteSinkE, ptr @_ZTIN6icu_708ByteSinkE }, align 8
@_ZTVN6icu_708ByteSinkE = external unnamed_addr constant { [7 x ptr] }, align 8

@_ZN4i18n12phonenumbers14StringByteSinkC1EPNSt7__cxx1112basic_stringIcSt11char_traitsIcESaIcEEE = dso_local unnamed_addr alias void (ptr, ptr), ptr @_ZN4i18n12phonenumbers14StringByteSinkC2EPNSt7__cxx1112basic_stringIcSt11char_traitsIcESaIcEEE
@_ZN4i18n12phonenumbers14StringByteSinkD1Ev = dso_local unnamed_addr alias void (ptr), ptr @_ZN4i18n12phonenumbers14StringByteSinkD2Ev

; Function Attrs: mustprogress uwtable
define dso_local void @_ZN4i18n12phonenumbers14StringByteSinkC2EPNSt7__cxx1112basic_stringIcSt11char_traitsIcESaIcEEE(ptr noundef nonnull align 8 dereferenceable(16) %0, ptr noundef %1) unnamed_addr #0 align 2 {
  %3 = alloca ptr, align 8
  %4 = alloca ptr, align 8
  store ptr %0, ptr %3, align 8
  store ptr %1, ptr %4, align 8
  %5 = load ptr, ptr %3, align 8
  call void @_ZN6icu_708ByteSinkC2Ev(ptr noundef nonnull align 8 dereferenceable(8) %5)
  store ptr getelementptr inbounds ({ [7 x ptr] }, ptr @_ZTVN4i18n12phonenumbers14StringByteSinkE, i32 0, i32 0, i32 2), ptr %5, align 8
  %6 = getelementptr inbounds %"class.i18n::phonenumbers::StringByteSink", ptr %5, i32 0, i32 1
  %7 = load ptr, ptr %4, align 8
  store ptr %7, ptr %6, align 8
  ret void
}

; Function Attrs: mustprogress nounwind uwtable
define linkonce_odr dso_local void @_ZN6icu_708ByteSinkC2Ev(ptr noundef nonnull align 8 dereferenceable(8) %0) unnamed_addr #1 comdat align 2 {
  %2 = alloca ptr, align 8
  store ptr %0, ptr %2, align 8
  %3 = load ptr, ptr %2, align 8
  store ptr getelementptr inbounds ({ [7 x ptr] }, ptr @_ZTVN6icu_708ByteSinkE, i32 0, i32 0, i32 2), ptr %3, align 8
  ret void
}

; Function Attrs: mustprogress nounwind uwtable
define dso_local void @_ZN4i18n12phonenumbers14StringByteSinkD2Ev(ptr noundef nonnull align 8 dereferenceable(16) %0) unnamed_addr #1 align 2 {
  %2 = alloca ptr, align 8
  store ptr %0, ptr %2, align 8
  %3 = load ptr, ptr %2, align 8
  call void @_ZN6icu_708ByteSinkD2Ev(ptr noundef nonnull align 8 dereferenceable(8) %3) #4
  ret void
}

; Function Attrs: nounwind
declare void @_ZN6icu_708ByteSinkD2Ev(ptr noundef nonnull align 8 dereferenceable(8)) unnamed_addr #2

; Function Attrs: mustprogress nounwind uwtable
define dso_local void @_ZN4i18n12phonenumbers14StringByteSinkD0Ev(ptr noundef nonnull align 8 dereferenceable(16) %0) unnamed_addr #1 align 2 {
  %2 = alloca ptr, align 8
  store ptr %0, ptr %2, align 8
  %3 = load ptr, ptr %2, align 8
  call void @_ZN4i18n12phonenumbers14StringByteSinkD1Ev(ptr noundef nonnull align 8 dereferenceable(16) %3) #4
  call void @_ZN6icu_707UMemorydlEPv(ptr noundef %3) #4
  ret void
}

; Function Attrs: nounwind
declare void @_ZN6icu_707UMemorydlEPv(ptr noundef) #2

; Function Attrs: mustprogress uwtable
define dso_local void @_ZN4i18n12phonenumbers14StringByteSink6AppendEPKci(ptr noundef nonnull align 8 dereferenceable(16) %0, ptr noundef %1, i32 noundef %2) unnamed_addr #0 align 2 {
  %4 = alloca ptr, align 8
  %5 = alloca ptr, align 8
  %6 = alloca i32, align 4
  store ptr %0, ptr %4, align 8
  store ptr %1, ptr %5, align 8
  store i32 %2, ptr %6, align 4
  %7 = load ptr, ptr %4, align 8
  %8 = getelementptr inbounds %"class.i18n::phonenumbers::StringByteSink", ptr %7, i32 0, i32 1
  %9 = load ptr, ptr %8, align 8
  %10 = load ptr, ptr %5, align 8
  %11 = load i32, ptr %6, align 4
  %12 = sext i32 %11 to i64
  %13 = call noundef nonnull align 8 dereferenceable(32) ptr @_ZNSt7__cxx1112basic_stringIcSt11char_traitsIcESaIcEE6appendEPKcm(ptr noundef nonnull align 8 dereferenceable(32) %9, ptr noundef %10, i64 noundef %12)
  ret void
}

declare noundef nonnull align 8 dereferenceable(32) ptr @_ZNSt7__cxx1112basic_stringIcSt11char_traitsIcESaIcEE6appendEPKcm(ptr noundef nonnull align 8 dereferenceable(32), ptr noundef, i64 noundef) #3

declare noundef ptr @_ZN6icu_708ByteSink15GetAppendBufferEiiPciPi(ptr noundef nonnull align 8 dereferenceable(8), i32 noundef, i32 noundef, ptr noundef, i32 noundef, ptr noundef) unnamed_addr #3

declare void @_ZN6icu_708ByteSink5FlushEv(ptr noundef nonnull align 8 dereferenceable(8)) unnamed_addr #3


!llvm.module.flags = !{!0, !1, !2, !3, !4}

!0 = !{i32 1, !"wchar_size", i32 4}
!1 = !{i32 8, !"PIC Level", i32 2}
!2 = !{i32 7, !"PIE Level", i32 2}
!3 = !{i32 7, !"uwtable", i32 2}
!4 = !{i32 7, !"frame-pointer", i32 2}
